; ModuleID = '31/1184.c'
source_filename = "31/1184.c"
target datalayout = "e-m:e-p270:32:32-p271:32:32-p272:64:64-i64:64-f80:128-n8:16:32:64-S128"
target triple = "x86_64-pc-linux-gnu"

%struct.Student = type { [20 x i8], [20 x i8], i8, i32, [20 x i8], [20 x i8], %struct.Student* }

@.str = private unnamed_addr constant [3 x i8] c"%s\00", align 1
@n = common dso_local global i32 0, align 4
@.str.1 = private unnamed_addr constant [15 x i8] c"%s %c %d %s %s\00", align 1
@.str.2 = private unnamed_addr constant [19 x i8] c"%s %s %c %d %s %s\0A\00", align 1

; Function Attrs: noinline nounwind uwtable
define dso_local %struct.Student* @creat() #0 {
  %1 = alloca %struct.Student*, align 8
  %2 = alloca %struct.Student*, align 8
  %3 = alloca %struct.Student*, align 8
  %4 = call noalias i8* @malloc(i64 100) #3
  %5 = bitcast i8* %4 to %struct.Student*
  store %struct.Student* %5, %struct.Student** %3, align 8
  store %struct.Student* %5, %struct.Student** %2, align 8
  %6 = load %struct.Student*, %struct.Student** %2, align 8
  %7 = getelementptr inbounds %struct.Student, %struct.Student* %6, i32 0, i32 0
  %8 = call i32 (i8*, ...) @__isoc99_scanf(i8* getelementptr inbounds ([3 x i8], [3 x i8]* @.str, i64 0, i64 0), [20 x i8]* %7)
  br label %9

9:                                                ; preds = %40, %0
  %10 = load %struct.Student*, %struct.Student** %2, align 8
  %11 = getelementptr inbounds %struct.Student, %struct.Student* %10, i32 0, i32 0
  %12 = getelementptr inbounds [20 x i8], [20 x i8]* %11, i64 0, i64 0
  %13 = load i8, i8* %12, align 8
  %14 = sext i8 %13 to i32
  %15 = icmp ne i32 %14, 101
  br i1 %15, label %16, label %46

16:                                               ; preds = %9
  %17 = load i32, i32* @n, align 4
  %18 = add nsw i32 %17, 1
  store i32 %18, i32* @n, align 4
  %19 = load %struct.Student*, %struct.Student** %2, align 8
  %20 = getelementptr inbounds %struct.Student, %struct.Student* %19, i32 0, i32 1
  %21 = load %struct.Student*, %struct.Student** %2, align 8
  %22 = getelementptr inbounds %struct.Student, %struct.Student* %21, i32 0, i32 2
  %23 = load %struct.Student*, %struct.Student** %2, align 8
  %24 = getelementptr inbounds %struct.Student, %struct.Student* %23, i32 0, i32 3
  %25 = load %struct.Student*, %struct.Student** %2, align 8
  %26 = getelementptr inbounds %struct.Student, %struct.Student* %25, i32 0, i32 4
  %27 = load %struct.Student*, %struct.Student** %2, align 8
  %28 = getelementptr inbounds %struct.Student, %struct.Student* %27, i32 0, i32 5
  %29 = call i32 (i8*, ...) @__isoc99_scanf(i8* getelementptr inbounds ([15 x i8], [15 x i8]* @.str.1, i64 0, i64 0), [20 x i8]* %20, i8* %22, i32* %24, [20 x i8]* %26, [20 x i8]* %28)
  %30 = load i32, i32* @n, align 4
  %31 = icmp eq i32 %30, 1
  br i1 %31, label %32, label %35

32:                                               ; preds = %16
  %33 = load %struct.Student*, %struct.Student** %2, align 8
  %34 = getelementptr inbounds %struct.Student, %struct.Student* %33, i32 0, i32 6
  store %struct.Student* null, %struct.Student** %34, align 8
  br label %40

35:                                               ; preds = %16
  %36 = load %struct.Student*, %struct.Student** %3, align 8
  %37 = load %struct.Student*, %struct.Student** %2, align 8
  %38 = getelementptr inbounds %struct.Student, %struct.Student* %37, i32 0, i32 6
  store %struct.Student* %36, %struct.Student** %38, align 8
  %39 = load %struct.Student*, %struct.Student** %2, align 8
  store %struct.Student* %39, %struct.Student** %3, align 8
  br label %40

40:                                               ; preds = %35, %32
  %41 = call noalias i8* @malloc(i64 100) #3
  %42 = bitcast i8* %41 to %struct.Student*
  store %struct.Student* %42, %struct.Student** %2, align 8
  %43 = load %struct.Student*, %struct.Student** %2, align 8
  %44 = getelementptr inbounds %struct.Student, %struct.Student* %43, i32 0, i32 0
  %45 = call i32 (i8*, ...) @__isoc99_scanf(i8* getelementptr inbounds ([3 x i8], [3 x i8]* @.str, i64 0, i64 0), [20 x i8]* %44)
  br label %9

46:                                               ; preds = %9
  %47 = load %struct.Student*, %struct.Student** %3, align 8
  store %struct.Student* %47, %struct.Student** %1, align 8
  %48 = load %struct.Student*, %struct.Student** %1, align 8
  ret %struct.Student* %48
}

; Function Attrs: nounwind
declare dso_local noalias i8* @malloc(i64) #1

declare dso_local i32 @__isoc99_scanf(i8*, ...) #2

; Function Attrs: noinline nounwind uwtable
define dso_local void @print(%struct.Student* %0) #0 {
  %2 = alloca %struct.Student*, align 8
  %3 = alloca %struct.Student*, align 8
  store %struct.Student* %0, %struct.Student** %2, align 8
  %4 = load %struct.Student*, %struct.Student** %2, align 8
  store %struct.Student* %4, %struct.Student** %3, align 8
  %5 = load %struct.Student*, %struct.Student** %2, align 8
  %6 = icmp ne %struct.Student* %5, null
  br i1 %6, label %7, label %36

7:                                                ; preds = %1
  br label %8

8:                                                ; preds = %32, %7
  %9 = load %struct.Student*, %struct.Student** %3, align 8
  %10 = getelementptr inbounds %struct.Student, %struct.Student* %9, i32 0, i32 0
  %11 = getelementptr inbounds [20 x i8], [20 x i8]* %10, i64 0, i64 0
  %12 = load %struct.Student*, %struct.Student** %3, align 8
  %13 = getelementptr inbounds %struct.Student, %struct.Student* %12, i32 0, i32 1
  %14 = getelementptr inbounds [20 x i8], [20 x i8]* %13, i64 0, i64 0
  %15 = load %struct.Student*, %struct.Student** %3, align 8
  %16 = getelementptr inbounds %struct.Student, %struct.Student* %15, i32 0, i32 2
  %17 = load i8, i8* %16, align 8
  %18 = sext i8 %17 to i32
  %19 = load %struct.Student*, %struct.Student** %3, align 8
  %20 = getelementptr inbounds %struct.Student, %struct.Student* %19, i32 0, i32 3
  %21 = load i32, i32* %20, align 4
  %22 = load %struct.Student*, %struct.Student** %3, align 8
  %23 = getelementptr inbounds %struct.Student, %struct.Student* %22, i32 0, i32 4
  %24 = getelementptr inbounds [20 x i8], [20 x i8]* %23, i64 0, i64 0
  %25 = load %struct.Student*, %struct.Student** %3, align 8
  %26 = getelementptr inbounds %struct.Student, %struct.Student* %25, i32 0, i32 5
  %27 = getelementptr inbounds [20 x i8], [20 x i8]* %26, i64 0, i64 0
  %28 = call i32 (i8*, ...) @printf(i8* getelementptr inbounds ([19 x i8], [19 x i8]* @.str.2, i64 0, i64 0), i8* %11, i8* %14, i32 %18, i32 %21, i8* %24, i8* %27)
  %29 = load %struct.Student*, %struct.Student** %3, align 8
  %30 = getelementptr inbounds %struct.Student, %struct.Student* %29, i32 0, i32 6
  %31 = load %struct.Student*, %struct.Student** %30, align 8
  store %struct.Student* %31, %struct.Student** %3, align 8
  br label %32

32:                                               ; preds = %8
  %33 = load %struct.Student*, %struct.Student** %3, align 8
  %34 = icmp ne %struct.Student* %33, null
  br i1 %34, label %8, label %35

35:                                               ; preds = %32
  br label %36

36:                                               ; preds = %35, %1
  ret void
}

declare dso_local i32 @printf(i8*, ...) #2

; Function Attrs: noinline nounwind uwtable
define dso_local void @main() #0 {
  %1 = alloca %struct.Student*, align 8
  %2 = call %struct.Student* @creat()
  store %struct.Student* %2, %struct.Student** %1, align 8
  %3 = load %struct.Student*, %struct.Student** %1, align 8
  call void @print(%struct.Student* %3)
  ret void
}


!llvm.module.flags = !{!0}
!llvm.ident = !{!1}

!0 = !{i32 1, !"wchar_size", i32 4}
!1 = !{!"clang version 10.0.0-4ubuntu1 "}
